; Function Attrs: mustprogress nounwind uwtable
define hidden void @_ZN13LIR_Assembler15patching_epilogEP12PatchingStub13LIR_PatchCode8RegisterP12CodeEmitInfo(ptr nocapture noundef nonnull align 8 dereferenceable(96) %0, ptr noundef %1, i32 noundef %2, i32 %3, ptr noundef %4) local_unnamed_addr #0 align 2 {
  %6 = getelementptr inbounds i8, ptr %1, i64 96
  %7 = load ptr, ptr %0, align 8
  %8 = getelementptr inbounds i8, ptr %7, i64 8
  %9 = load ptr, ptr %8, align 8
  %10 = getelementptr inbounds i8, ptr %9, i64 16
  %11 = load ptr, ptr %10, align 8
  %12 = ptrtoint ptr %11 to i64
  %13 = load ptr, ptr %6, align 8
  %14 = ptrtoint ptr %13 to i64
  %15 = sub nsw i64 %12, %14
  %16 = icmp slt i64 %15, 5
  br i1 %16, label %.lr.ph, label %._crit_edge

.lr.ph:                                           ; preds = %5, %.lr.ph
  %17 = phi ptr [ %18, %.lr.ph ], [ %7, %5 ]
  tail call void @_ZN9Assembler3nopEj(ptr noundef nonnull align 8 dereferenceable(40) %17, i32 noundef 1) #11
  %18 = load ptr, ptr %0, align 8
  %19 = getelementptr inbounds i8, ptr %18, i64 8
  %20 = load ptr, ptr %19, align 8
  %21 = getelementptr inbounds i8, ptr %20, i64 16
  %22 = load ptr, ptr %21, align 8
  %23 = ptrtoint ptr %22 to i64
  %24 = load ptr, ptr %6, align 8
  %25 = ptrtoint ptr %24 to i64
  %26 = sub nsw i64 %23, %25
  %27 = icmp slt i64 %26, 5
  br i1 %27, label %.lr.ph, label %._crit_edge, !llvm.loop !6

._crit_edge:                                      ; preds = %.lr.ph, %5
  %28 = getelementptr inbounds i8, ptr %4, i64 42
  store i8 1, ptr %28, align 2
  %29 = load ptr, ptr %0, align 8
  tail call void @_ZN12PatchingStub7installEP14MacroAssembler13LIR_PatchCode8RegisterP12CodeEmitInfo(ptr noundef nonnull align 8 dereferenceable(252) %1, ptr noundef %29, i32 noundef %2, i32 %3, ptr noundef nonnull %4)
  %30 = load ptr, ptr %1, align 8
  %31 = getelementptr inbounds i8, ptr %30, i64 32
  %32 = load ptr, ptr %31, align 8
  %33 = tail call noundef i32 %32(ptr noundef nonnull align 8 dereferenceable(88) %1) #11
  %34 = getelementptr inbounds i8, ptr %0, i64 52
  %35 = load i32, ptr %34, align 4
  %36 = add nsw i32 %35, %33
  store i32 %36, ptr %34, align 4
  %37 = getelementptr inbounds i8, ptr %0, i64 8
  %38 = load ptr, ptr %37, align 8
  %39 = load i32, ptr %38, align 8
  %40 = icmp sgt i32 %39, 0
  br i1 %40, label %.lr.ph.i.i.i, label %_ZNK17GrowableArrayViewIP8CodeStubE8containsERKS1_.exit.thread.i.i

.lr.ph.i.i.i:                                     ; preds = %._crit_edge
  %41 = getelementptr inbounds i8, ptr %38, i64 8
  %42 = load ptr, ptr %41, align 8
  %43 = zext nneg i32 %39 to i64
  %44 = load ptr, ptr %42, align 8
  %45 = icmp eq ptr %44, %1
  br i1 %45, label %_ZN13LIR_Assembler16append_code_stubEP8CodeStub.exit, label %.lr.ph.i.i

.lr.ph.i.i:                                       ; preds = %.lr.ph.i.i.i, %46
  %indvars.iv.i3.i.i = phi i64 [ %indvars.iv.next.i.i.i, %46 ], [ 0, %.lr.ph.i.i.i ]
  %indvars.iv.next.i.i.i = add nuw nsw i64 %indvars.iv.i3.i.i, 1
  %exitcond.not.i.i.i = icmp eq i64 %indvars.iv.next.i.i.i, %43
  br i1 %exitcond.not.i.i.i, label %_ZNK17GrowableArrayViewIP8CodeStubE8containsERKS1_.exit.thread.i.i, label %46, !llvm.loop !8

46:                                               ; preds = %.lr.ph.i.i
  %47 = getelementptr inbounds ptr, ptr %42, i64 %indvars.iv.next.i.i.i
  %48 = load ptr, ptr %47, align 8
  %49 = icmp eq ptr %48, %1
  br i1 %49, label %_ZNK17GrowableArrayViewIP8CodeStubE8containsERKS1_.exit.i.i, label %.lr.ph.i.i, !llvm.loop !8

_ZNK17GrowableArrayViewIP8CodeStubE8containsERKS1_.exit.i.i: ; preds = %46
  %50 = icmp ult i64 %indvars.iv.next.i.i.i, %43
  br i1 %50, label %_ZN13LIR_Assembler16append_code_stubEP8CodeStub.exit, label %_ZNK17GrowableArrayViewIP8CodeStubE8containsERKS1_.exit.thread.i.i

_ZNK17GrowableArrayViewIP8CodeStubE8containsERKS1_.exit.thread.i.i: ; preds = %.lr.ph.i.i, %_ZNK17GrowableArrayViewIP8CodeStubE8containsERKS1_.exit.i.i, %._crit_edge
  %51 = getelementptr inbounds i8, ptr %38, i64 4
  %52 = load i32, ptr %51, align 4
  %53 = icmp eq i32 %39, %52
  br i1 %53, label %54, label %_ZN26GrowableArrayWithAllocatorIP8CodeStub13GrowableArrayIS1_EE6appendERKS1_.exit.i.i

54:                                               ; preds = %_ZNK17GrowableArrayViewIP8CodeStubE8containsERKS1_.exit.thread.i.i
  %55 = add nsw i32 %39, 1
  %56 = icmp sgt i32 %39, -1
  %57 = xor i32 %39, -2147483648
  %58 = and i32 %57, %55
  %59 = icmp eq i32 %58, 0
  %60 = and i1 %56, %59
  %61 = tail call range(i32 0, 33) i32 @llvm.ctlz.i32(i32 %55, i1 true)
  %62 = sub nuw nsw i32 32, %61
  %63 = shl nuw i32 1, %62
  %.0.i.i.i.i.i.i = select i1 %60, i32 %55, i32 %63
  tail call void @_ZN26GrowableArrayWithAllocatorIP8CodeStub13GrowableArrayIS1_EE9expand_toEi(ptr noundef nonnull align 8 dereferenceable(16) %38, i32 noundef %.0.i.i.i.i.i.i)
  %.pre.i.i.i = load i32, ptr %38, align 8
  br label %_ZN26GrowableArrayWithAllocatorIP8CodeStub13GrowableArrayIS1_EE6appendERKS1_.exit.i.i

_ZN26GrowableArrayWithAllocatorIP8CodeStub13GrowableArrayIS1_EE6appendERKS1_.exit.i.i: ; preds = %54, %_ZNK17GrowableArrayViewIP8CodeStubE8containsERKS1_.exit.thread.i.i
  %64 = phi i32 [ %.pre.i.i.i, %54 ], [ %39, %_ZNK17GrowableArrayViewIP8CodeStubE8containsERKS1_.exit.thread.i.i ]
  %65 = add nsw i32 %64, 1
  store i32 %65, ptr %38, align 8
  %66 = getelementptr inbounds i8, ptr %38, i64 8
  %67 = load ptr, ptr %66, align 8
  %68 = sext i32 %64 to i64
  %69 = getelementptr inbounds ptr, ptr %67, i64 %68
  store ptr %1, ptr %69, align 8
  br label %_ZN13LIR_Assembler16append_code_stubEP8CodeStub.exit

_ZN13LIR_Assembler16append_code_stubEP8CodeStub.exit: ; preds = %.lr.ph.i.i.i, %_ZNK17GrowableArrayViewIP8CodeStubE8containsERKS1_.exit.i.i, %_ZN26GrowableArrayWithAllocatorIP8CodeStub13GrowableArrayIS1_EE6appendERKS1_.exit.i.i
  ret void
}